; Function Attrs: nounwind uwtable
define void @lv_vector_dsc_delete(ptr noundef %0) local_unnamed_addr #3 {
  %2 = getelementptr inbounds nuw i8, ptr %0, i64 496
  %3 = load ptr, ptr %2, align 8, !tbaa !57
  %.not = icmp eq ptr %3, null
  br i1 %.not, label %5, label %4

4:                                                ; preds = %1
  tail call void @lv_vector_for_each_destroy_tasks(ptr noundef nonnull %3, ptr noundef null, ptr noundef null)
  store ptr null, ptr %2, align 8, !tbaa !57
  br label %5

5:                                                ; preds = %4, %1
  %6 = getelementptr inbounds nuw i8, ptr %0, i64 272
  tail call void @lv_array_deinit(ptr noundef nonnull %6) #9
  tail call void @lv_free(ptr noundef nonnull %0) #9
  ret void
}